; Function Attrs: nounwind uwtable
define internal fastcc i32 @r_step5k(ptr noundef initializes((24, 28)) %0) unnamed_addr #0 {
  %2 = getelementptr inbounds nuw i8, ptr %0, i64 8
  %3 = load i32, ptr %2, align 8
  %4 = getelementptr inbounds nuw i8, ptr %0, i64 24
  store i32 %3, ptr %4, align 8
  %5 = add i32 %3, -7
  %6 = getelementptr inbounds nuw i8, ptr %0, i64 16
  %7 = load i32, ptr %6, align 8
  %.not = icmp sgt i32 %5, %7
  br i1 %.not, label %8, label %33

8:                                                ; preds = %1
  %9 = load ptr, ptr %0, align 8
  %10 = add i32 %3, -1
  %11 = sext i32 %10 to i64
  %12 = getelementptr inbounds i8, ptr %9, i64 %11
  %13 = load i8, ptr %12, align 1
  %.not28 = icmp eq i8 %13, -75
  br i1 %.not28, label %14, label %33

14:                                               ; preds = %8
  %15 = tail call i32 @find_among_b(ptr noundef nonnull %0, ptr noundef nonnull @a_59, i32 noundef 1) #2
  %.not29 = icmp eq i32 %15, 0
  br i1 %.not29, label %33, label %16

16:                                               ; preds = %14
  %17 = load i32, ptr %2, align 8
  %18 = getelementptr inbounds nuw i8, ptr %0, i64 20
  store i32 %17, ptr %18, align 4
  %19 = tail call i32 @slice_del(ptr noundef nonnull %0) #2
  %20 = icmp sgt i32 %19, -1
  br i1 %20, label %21, label %33

21:                                               ; preds = %16
  %22 = getelementptr inbounds nuw i8, ptr %0, i64 40
  %23 = load ptr, ptr %22, align 8
  store i32 0, ptr %23, align 4
  %24 = load i32, ptr %2, align 8
  store i32 %24, ptr %4, align 8
  store i32 %24, ptr %18, align 4
  %25 = tail call i32 @find_among_b(ptr noundef nonnull %0, ptr noundef nonnull @a_60, i32 noundef 10) #2
  %.not30 = icmp eq i32 %25, 0
  br i1 %.not30, label %33, label %26

26:                                               ; preds = %21
  %27 = load i32, ptr %2, align 8
  %28 = load i32, ptr %6, align 8
  %29 = icmp sgt i32 %27, %28
  br i1 %29, label %33, label %30

30:                                               ; preds = %26
  %31 = tail call i32 @slice_from_s(ptr noundef nonnull %0, i32 noundef 6, ptr noundef nonnull @s_103) #2
  %32 = icmp sgt i32 %31, -1
  %spec.select = select i1 %32, i32 1, i32 %31
  br label %33

33:                                               ; preds = %30, %16, %26, %21, %14, %1, %8
  %.0 = phi i32 [ %19, %16 ], [ 0, %8 ], [ 0, %1 ], [ 0, %14 ], [ 0, %21 ], [ 0, %26 ], [ %spec.select, %30 ]
  ret i32 %.0
}